; Function Attrs: mustprogress null_pointer_is_valid sspstrong uwtable
define internal void @"_ZN9QtPrivate18QFunctorSlotObjectIZN24GLibMainloopOnQEventLoop5setupEP7QObjectE3$_0Li0ENS_4ListIJEEEvE4implEiPNS_15QSlotObjectBaseES3_PPvPb"(i32 noundef %0, ptr noundef %1, ptr readnone captures(none) %2, ptr readnone captures(none) %3, ptr readnone captures(none) %4) #0 align 2 personality ptr @__gxx_personality_v0 {
  switch i32 %0, label %"_ZN9QtPrivate7FunctorIZN24GLibMainloopOnQEventLoop5setupEP7QObjectE3$_0Li0EE4callINS_4ListIJEEEvEEvRS4_PvPSA_.exit" [
    i32 0, label %6
    i32 1, label %9
  ]

6:                                                ; preds = %5
  %7 = icmp eq ptr %1, null
  br i1 %7, label %"_ZN9QtPrivate7FunctorIZN24GLibMainloopOnQEventLoop5setupEP7QObjectE3$_0Li0EE4callINS_4ListIJEEEvEEvRS4_PvPSA_.exit", label %8

8:                                                ; preds = %6
  tail call void @_ZdlPvm(ptr noundef nonnull %1, i64 noundef 24) #16
  br label %"_ZN9QtPrivate7FunctorIZN24GLibMainloopOnQEventLoop5setupEP7QObjectE3$_0Li0EE4callINS_4ListIJEEEvEEvRS4_PvPSA_.exit"

9:                                                ; preds = %5
  %10 = tail call i32 @g_main_depth()
  %11 = icmp eq i32 %10, 0
  br i1 %11, label %12, label %"_ZN9QtPrivate7FunctorIZN24GLibMainloopOnQEventLoop5setupEP7QObjectE3$_0Li0EE4callINS_4ListIJEEEvEEvRS4_PvPSA_.exit"

12:                                               ; preds = %9
  %13 = getelementptr inbounds nuw i8, ptr %1, i64 16
  %14 = tail call noalias noundef dereferenceable_or_null(80) ptr @_Znwm(i64 noundef 80) #18
  %15 = load ptr, ptr %13, align 8
  invoke void @_ZN24GLibMainloopOnQEventLoopC1EP7QObject(ptr noundef align 8 dereferenceable_or_null(80) %14, ptr noundef %15)
          to label %"_ZN9QtPrivate7FunctorIZN24GLibMainloopOnQEventLoop5setupEP7QObjectE3$_0Li0EE4callINS_4ListIJEEEvEEvRS4_PvPSA_.exit" unwind label %16

16:                                               ; preds = %12
  %17 = landingpad { ptr, i32 }
          cleanup
  tail call void @_ZdlPvm(ptr noundef %14, i64 noundef 80) #16
  resume { ptr, i32 } %17

"_ZN9QtPrivate7FunctorIZN24GLibMainloopOnQEventLoop5setupEP7QObjectE3$_0Li0EE4callINS_4ListIJEEEvEEvRS4_PvPSA_.exit": ; preds = %12, %9, %6, %8, %5
  ret void
}